target datalayout = "e-m:e-p270:32:32-p271:32:32-p272:64:64-i64:64-i128:128-f80:128-n8:16:32:64-S128"
target triple = "x86_64-pc-linux-gnu"

%struct.CTState = type { ptr, i32, i32, ptr, ptr, ptr, %struct.CCallback, [128 x i16] }
%struct.CCallback = type { [8 x %union.FPRCBArg], [8 x i64], ptr, ptr, ptr, i32, i32, i32 }
%union.FPRCBArg = type { double }

; Function Attrs: nounwind uwtable
define hidden void @lj_ccallback_mcode_free(ptr noundef %0) #0 {
  %2 = alloca ptr, align 8
  %3 = alloca i64, align 8
  %4 = alloca ptr, align 8
  %5 = alloca i32, align 4
  store ptr %0, ptr %2, align 8, !tbaa !4
  call void @llvm.lifetime.start.p0(i64 8, ptr %3) #9
  store i64 4096, ptr %3, align 8, !tbaa !20
  call void @llvm.lifetime.start.p0(i64 8, ptr %4) #9
  %6 = load ptr, ptr %2, align 8, !tbaa !4
  %7 = getelementptr inbounds nuw %struct.CTState, ptr %6, i32 0, i32 6
  %8 = getelementptr inbounds nuw %struct.CCallback, ptr %7, i32 0, i32 3
  %9 = load ptr, ptr %8, align 8, !tbaa !10
  store ptr %9, ptr %4, align 8, !tbaa !9
  %10 = load ptr, ptr %4, align 8, !tbaa !9
  %11 = icmp eq ptr %10, null
  br i1 %11, label %12, label %13

12:                                               ; preds = %1
  store i32 1, ptr %5, align 4
  br label %17

13:                                               ; preds = %1
  %14 = load ptr, ptr %4, align 8, !tbaa !9
  %15 = load i64, ptr %3, align 8, !tbaa !20
  %16 = call i32 @munmap(ptr noundef %14, i64 noundef %15) #9
  store i32 0, ptr %5, align 4
  br label %17

17:                                               ; preds = %13, %12
  call void @llvm.lifetime.end.p0(i64 8, ptr %4) #9
  call void @llvm.lifetime.end.p0(i64 8, ptr %3) #9
  %18 = load i32, ptr %5, align 4
  switch i32 %18, label %20 [
    i32 0, label %19
    i32 1, label %19
  ]

19:                                               ; preds = %17, %17
  ret void

20:                                               ; preds = %17
  unreachable
}