; Function Attrs: nounwind uwtable
define hidden void @lj_ccallback_mcode_free(ptr noundef readonly captures(none) %0) local_unnamed_addr #1 {
  %2 = getelementptr inbounds nuw i8, ptr %0, i64 176
  %3 = load ptr, ptr %2, align 8, !tbaa !4
  %4 = icmp eq ptr %3, null
  br i1 %4, label %7, label %5

5:                                                ; preds = %1
  %6 = tail call i32 @munmap(ptr noundef nonnull %3, i64 noundef 4096) #7
  br label %7

7:                                                ; preds = %1, %5
  ret void
}